(dp1
Vd = psychic.load_bdf('../Data/Subject6-IMEC.bdf')
p2
I2688
sVfor i in range(max(d.Y)):
p3
I6610
sVmdict
p4
I3612
sVdatetime.datetime.strftime?
p5
I1246
sVeegplot.plot_eeg(d[60000:120000])
p6
I3566
sVintensity[0][1][0]
p7
I3173
sVd6
p8
I3121
sVcd kuleuven/BCITD/Python/
p9
I1684
sVeegplot.plot_eeg(d, 128, freq_range=[0, 20]w)
p10
I1014
sVplt.plot(d2.ids[0:10], d2.xs[0:10,0])
p11
I679
sVframes
p12
I2556
sVreload classifierp300
p13
I4997
sVplot.plot(train.Y)
p14
I6098
s.