(lp1
S'/Users/rodin/Temp/daeken-Emokit-881f0a8'
p2
aS'/Users/rodin/kuleuven/BCITD/Python'
p3
aS'/Users/rodin/kuleuven/N400/scripts'
p4
aS'/Users/rodin/kuleuven/BCITD/Python'
p5
aS'/Users/rodin/kuleuven/BCITD/Python'
p6
aS'/Users/rodin/kuleuven/N400/scripts'
p7
aS'/Users/rodin/kuleuven/N400/scripts'
p8
aS'/Users/rodin/kuleuven/N400/scripts'
p9
aS'/Users/rodin/kuleuven/BCITD/Data'
p10
aS'/Users/rodin/kuleuven/BCITD/Python'
p11
aS'/Users/rodin/kuleuven/N400/scripts'
p12
aS'/Users/rodin/kuleuven/N400/scripts'
p13
aS'/Users/rodin/Temp'
p14
a.